; Function Attrs: mustprogress nofree nounwind willreturn memory(read, inaccessiblemem: none) uwtable
define noundef i64 @_ZN5boost10filesystem6detail15path_algorithms21find_parent_path_sizeERKNS0_4pathE(ptr nocapture noundef nonnull readonly align 8 dereferenceable(32) %0) local_unnamed_addr #7 align 2 {
  %2 = getelementptr inbounds nuw i8, ptr %0, i64 8
  %3 = load i64, ptr %2, align 8, !tbaa !10
  %4 = load ptr, ptr %0, align 8
  %5 = icmp eq i64 %3, 0
  br i1 %5, label %_ZN12_GLOBAL__N_125find_root_directory_startEPKcmRm.exit, label %6

6:                                                ; preds = %1
  %7 = load i8, ptr %4, align 1, !tbaa !11
  %8 = icmp eq i8 %7, 47
  br i1 %8, label %9, label %_ZN12_GLOBAL__N_125find_root_directory_startEPKcmRm.exit

9:                                                ; preds = %6
  %.not.i = icmp eq i64 %3, 1
  br i1 %.not.i, label %_ZN12_GLOBAL__N_125find_root_directory_startEPKcmRm.exit, label %10

10:                                               ; preds = %9
  %11 = getelementptr inbounds i8, ptr %4, i64 1
  %12 = load i8, ptr %11, align 1, !tbaa !11
  %13 = icmp eq i8 %12, 47
  br i1 %13, label %14, label %_ZN12_GLOBAL__N_125find_root_directory_startEPKcmRm.exit

14:                                               ; preds = %10
  %15 = icmp eq i64 %3, 2
  br i1 %15, label %_ZN12_GLOBAL__N_125find_root_directory_startEPKcmRm.exit, label %16

16:                                               ; preds = %14
  %17 = getelementptr inbounds i8, ptr %4, i64 2
  %18 = load i8, ptr %17, align 1, !tbaa !11
  %19 = icmp eq i8 %18, 47
  br i1 %19, label %_ZN12_GLOBAL__N_125find_root_directory_startEPKcmRm.exit, label %20

20:                                               ; preds = %16
  %21 = add i64 %3, -2
  %22 = tail call noundef ptr @memchr(ptr noundef nonnull %17, i32 noundef 47, i64 noundef %21) #22
  %.not.i.i = icmp eq ptr %22, null
  %23 = ptrtoint ptr %22 to i64
  %24 = ptrtoint ptr %17 to i64
  %25 = sub i64 %23, %24
  %.0.i.i = select i1 %.not.i.i, i64 %21, i64 %25, !prof !14
  %26 = add i64 %.0.i.i, 2
  br label %_ZN12_GLOBAL__N_125find_root_directory_startEPKcmRm.exit

_ZN12_GLOBAL__N_125find_root_directory_startEPKcmRm.exit: ; preds = %14, %20, %1, %6, %9, %10, %16
  %.020 = phi i64 [ 0, %1 ], [ 0, %9 ], [ 0, %16 ], [ 0, %10 ], [ 0, %6 ], [ %26, %20 ], [ 2, %14 ]
  %.021.i = phi i64 [ 0, %1 ], [ 0, %9 ], [ 0, %16 ], [ 0, %10 ], [ %3, %6 ], [ %26, %20 ], [ 2, %14 ]
  %umin.i = tail call i64 @llvm.umin.i64(i64 %3, i64 %.020)
  br label %27

27:                                               ; preds = %29, %_ZN12_GLOBAL__N_125find_root_directory_startEPKcmRm.exit
  %.0.i = phi i64 [ %3, %_ZN12_GLOBAL__N_125find_root_directory_startEPKcmRm.exit ], [ %30, %29 ]
  %28 = icmp ugt i64 %.0.i, %.020
  br i1 %28, label %29, label %_ZN12_GLOBAL__N_118find_filename_sizeERKNSt7__cxx1112basic_stringIcSt11char_traitsIcESaIcEEEmm.exit

29:                                               ; preds = %27
  %30 = add i64 %.0.i, -1
  %31 = getelementptr inbounds nuw i8, ptr %4, i64 %30
  %32 = load i8, ptr %31, align 1, !tbaa !11
  %33 = icmp eq i8 %32, 47
  br i1 %33, label %_ZN12_GLOBAL__N_118find_filename_sizeERKNSt7__cxx1112basic_stringIcSt11char_traitsIcESaIcEEEmm.exit, label %27, !llvm.loop !17

_ZN12_GLOBAL__N_118find_filename_sizeERKNSt7__cxx1112basic_stringIcSt11char_traitsIcESaIcEEEmm.exit: ; preds = %27, %29
  %.0.lcssa.i = phi i64 [ %.0.i, %29 ], [ %umin.i, %27 ]
  %umin = tail call i64 @llvm.umin.i64(i64 %.020, i64 %.0.lcssa.i)
  br label %34

34:                                               ; preds = %42, %_ZN12_GLOBAL__N_118find_filename_sizeERKNSt7__cxx1112basic_stringIcSt11char_traitsIcESaIcEEEmm.exit
  %.0 = phi i64 [ %.0.lcssa.i, %_ZN12_GLOBAL__N_118find_filename_sizeERKNSt7__cxx1112basic_stringIcSt11char_traitsIcESaIcEEEmm.exit ], [ %38, %42 ]
  %.not = icmp ugt i64 %.0, %.020
  br i1 %.not, label %37, label %35

35:                                               ; preds = %34
  %36 = icmp eq i64 %3, %.0.lcssa.i
  %spec.select = select i1 %36, i64 0, i64 %umin
  br label %.loopexit

37:                                               ; preds = %34
  %38 = add i64 %.0, -1
  %39 = getelementptr inbounds nuw i8, ptr %4, i64 %38
  %40 = load i8, ptr %39, align 1, !tbaa !11
  %41 = icmp eq i8 %40, 47
  br i1 %41, label %42, label %.loopexit

42:                                               ; preds = %37
  %43 = icmp eq i64 %38, %.021.i
  br i1 %43, label %44, label %34, !llvm.loop !47

44:                                               ; preds = %42
  %45 = icmp ne i64 %3, %.0.lcssa.i
  %46 = zext i1 %45 to i64
  %47 = add nuw i64 %.021.i, %46
  br label %.loopexit

.loopexit:                                        ; preds = %37, %35, %44
  %.1 = phi i64 [ %47, %44 ], [ %spec.select, %35 ], [ %.0, %37 ]
  ret i64 %.1
}